target datalayout = "e-m:e-p270:32:32-p271:32:32-p272:64:64-i64:64-i128:128-f80:128-n8:16:32:64-S128"
target triple = "x86_64-pc-linux-gnu"

%struct.Vec_Ptr_t_ = type { i32, i32, ptr }

; Function Attrs: nounwind uwtable
define internal double @Vec_PtrMemory(ptr noundef %0) #0 {
  %2 = alloca ptr, align 8
  store ptr %0, ptr %2, align 8
  %3 = load ptr, ptr %2, align 8
  %4 = icmp ne ptr %3, null
  br i1 %4, label %6, label %5

5:                                                ; preds = %1
  br label %13

6:                                                ; preds = %1
  %7 = load ptr, ptr %2, align 8
  %8 = getelementptr inbounds %struct.Vec_Ptr_t_, ptr %7, i32 0, i32 0
  %9 = load i32, ptr %8, align 8
  %10 = sext i32 %9 to i64
  %11 = uitofp i64 %10 to double
  %12 = call double @llvm.fmuladd.f64(double 8.000000e+00, double %11, double 1.600000e+01)
  br label %13

13:                                               ; preds = %6, %5
  %14 = phi double [ 0.000000e+00, %5 ], [ %12, %6 ]
  ret double %14
}

; Function Attrs: nounwind uwtable
define i32 @Bac_PtrMemoryArray(ptr noundef %0) #0 {
  %2 = alloca ptr, align 8
  store ptr %0, ptr %2, align 8
  %3 = load ptr, ptr %2, align 8
  %4 = call double @Vec_PtrMemory(ptr noundef %3)
  %5 = fptosi double %4 to i32
  ret i32 %5
}