; Function Attrs: mustprogress nofree norecurse nosync nounwind willreturn memory(argmem: read) uwtable
define i32 @Bac_PtrMemoryArray(ptr noundef readonly %0) local_unnamed_addr #1 {
  %.not.i = icmp eq ptr %0, null
  br i1 %.not.i, label %Vec_PtrMemory.exit, label %2

2:                                                ; preds = %1
  %3 = load i32, ptr %0, align 8
  %4 = sext i32 %3 to i64
  %5 = uitofp i64 %4 to double
  %6 = tail call double @llvm.fmuladd.f64(double %5, double 8.000000e+00, double 1.600000e+01)
  %7 = fptosi double %6 to i32
  br label %Vec_PtrMemory.exit

Vec_PtrMemory.exit:                               ; preds = %1, %2
  %8 = phi i32 [ %7, %2 ], [ 0, %1 ]
  ret i32 %8
}